; Function Attrs: nofree norecurse nosync nounwind memory(argmem: readwrite) uwtable
define hidden void @loadcompressed256(ptr noundef writeonly captures(none) %0, ptr noundef readonly captures(none) %1, ptr noundef readonly captures(none) %2, i32 noundef %3) local_unnamed_addr #3 {
  %5 = alloca [4 x i32], align 16
  %6 = alloca [4 x i64], align 16
  %.0.vec.extract.i = load i64, ptr %2, align 32
  %7 = getelementptr inbounds nuw i8, ptr %2, i64 8
  %.8.vec.extract.i = load i64, ptr %7, align 8
  %8 = getelementptr inbounds nuw i8, ptr %2, i64 16
  %.16.vec.extract.i = load i64, ptr %8, align 16
  %9 = getelementptr inbounds nuw i8, ptr %2, i64 24
  %.24.vec.extract.i = load i64, ptr %9, align 8
  call void @llvm.lifetime.start.p0(i64 16, ptr nonnull %5) #7
  %10 = tail call range(i64 0, 65) i64 @llvm.ctpop.i64(i64 %.0.vec.extract.i)
  %11 = trunc nuw nsw i64 %10 to i32
  store i32 %11, ptr %5, align 16
  %12 = getelementptr inbounds nuw i8, ptr %5, i64 4
  %13 = tail call range(i64 0, 65) i64 @llvm.ctpop.i64(i64 %.8.vec.extract.i)
  %14 = trunc nuw nsw i64 %13 to i32
  store i32 %14, ptr %12, align 4
  %15 = getelementptr inbounds nuw i8, ptr %5, i64 8
  %16 = tail call range(i64 0, 65) i64 @llvm.ctpop.i64(i64 %.16.vec.extract.i)
  %17 = trunc nuw nsw i64 %16 to i32
  store i32 %17, ptr %15, align 8
  %18 = getelementptr inbounds nuw i8, ptr %5, i64 12
  %19 = tail call range(i64 0, 65) i64 @llvm.ctpop.i64(i64 %.24.vec.extract.i)
  %20 = trunc nuw nsw i64 %19 to i32
  store i32 %20, ptr %18, align 4
  call void @llvm.lifetime.start.p0(i64 32, ptr nonnull %6) #7
  br label %21

21:                                               ; preds = %4, %._crit_edge
  %indvars.iv = phi i64 [ 0, %4 ], [ %indvars.iv.next, %._crit_edge ]
  %.0.i13 = phi ptr [ %1, %4 ], [ %.1.i.lcssa, %._crit_edge ]
  %.032.i12 = phi i32 [ 0, %4 ], [ %.133.i.lcssa, %._crit_edge ]
  %22 = getelementptr inbounds nuw i32, ptr %5, i64 %indvars.iv
  %23 = load i32, ptr %22, align 4
  %.not.i3 = icmp eq i32 %23, 0
  br i1 %.not.i3, label %._crit_edge, label %.lr.ph

.lr.ph:                                           ; preds = %21, %37
  %.1.i8 = phi ptr [ %44, %37 ], [ %.0.i13, %21 ]
  %.133.i7 = phi i32 [ 0, %37 ], [ %.032.i12, %21 ]
  %.036.i6 = phi i32 [ %42, %37 ], [ 0, %21 ]
  %.039.i5 = phi i32 [ %43, %37 ], [ %23, %21 ]
  %.042.i4 = phi i64 [ %41, %37 ], [ 0, %21 ]
  %24 = load i8, ptr %.1.i8, align 1
  %25 = zext i8 %24 to i32
  %26 = lshr i32 %25, %.133.i7
  %27 = sub i32 8, %.133.i7
  %.not47.i = icmp ugt i32 %.039.i5, %27
  br i1 %.not47.i, label %37, label %28

28:                                               ; preds = %.lr.ph
  %notmask.i = shl nsw i32 -1, %.039.i5
  %29 = xor i32 %notmask.i, -1
  %30 = and i32 %26, %29
  %31 = zext nneg i32 %30 to i64
  %32 = zext nneg i32 %.036.i6 to i64
  %33 = shl i64 %31, %32
  %34 = or i64 %33, %.042.i4
  %35 = add i32 %.133.i7, %.039.i5
  %36 = icmp ugt i32 %35, 7
  %spec.select = select i1 %36, i32 0, i32 %35
  %spec.select37.idx = zext i1 %36 to i64
  %spec.select37 = getelementptr inbounds nuw i8, ptr %.1.i8, i64 %spec.select37.idx
  br label %._crit_edge

37:                                               ; preds = %.lr.ph
  %38 = zext nneg i32 %26 to i64
  %39 = zext nneg i32 %.036.i6 to i64
  %40 = shl i64 %38, %39
  %41 = or i64 %40, %.042.i4
  %42 = add i32 %27, %.036.i6
  %43 = sub nuw i32 %.039.i5, %27
  %44 = getelementptr inbounds nuw i8, ptr %.1.i8, i64 1
  %.not.i = icmp eq i32 %43, 0
  br i1 %.not.i, label %._crit_edge, label %.lr.ph

._crit_edge:                                      ; preds = %37, %28, %21
  %.042.i.lcssa = phi i64 [ 0, %21 ], [ %34, %28 ], [ %41, %37 ]
  %.133.i.lcssa = phi i32 [ %.032.i12, %21 ], [ %spec.select, %28 ], [ 0, %37 ]
  %.1.i.lcssa = phi ptr [ %.0.i13, %21 ], [ %spec.select37, %28 ], [ %44, %37 ]
  %45 = getelementptr inbounds nuw i64, ptr %6, i64 %indvars.iv
  store i64 %.042.i.lcssa, ptr %45, align 8
  %indvars.iv.next = add nuw nsw i64 %indvars.iv, 1
  %exitcond.not = icmp eq i64 %indvars.iv.next, 4
  br i1 %exitcond.not, label %unpack_bits_64.exit, label %21

unpack_bits_64.exit:                              ; preds = %._crit_edge
  %46 = load i64, ptr %6, align 16
  %47 = tail call i64 @llvm.x86.bmi.pdep.64(i64 %46, i64 %.0.vec.extract.i)
  %48 = getelementptr inbounds nuw i8, ptr %6, i64 8
  %49 = load i64, ptr %48, align 8
  %50 = tail call i64 @llvm.x86.bmi.pdep.64(i64 %49, i64 %.8.vec.extract.i)
  %51 = getelementptr inbounds nuw i8, ptr %6, i64 16
  %52 = load i64, ptr %51, align 16
  %53 = tail call i64 @llvm.x86.bmi.pdep.64(i64 %52, i64 %.16.vec.extract.i)
  %54 = getelementptr inbounds nuw i8, ptr %6, i64 24
  %55 = load i64, ptr %54, align 8
  %56 = tail call i64 @llvm.x86.bmi.pdep.64(i64 %55, i64 %.24.vec.extract.i)
  %57 = insertelement <4 x i64> poison, i64 %47, i64 0
  %58 = insertelement <4 x i64> %57, i64 %50, i64 1
  %59 = insertelement <4 x i64> %58, i64 %53, i64 2
  %60 = insertelement <4 x i64> %59, i64 %56, i64 3
  call void @llvm.lifetime.end.p0(i64 32, ptr nonnull %6) #7
  call void @llvm.lifetime.end.p0(i64 16, ptr nonnull %5) #7
  store <4 x i64> %60, ptr %0, align 32
  ret void
}